; Function Attrs: nounwind uwtable
define dso_local ptr @slurm_get_srun_port_range() local_unnamed_addr #1 {
  %1 = load ptr, ptr @slurmdbd_conf, align 8
  %.not = icmp eq ptr %1, null
  br i1 %.not, label %2, label %6

2:                                                ; preds = %0
  %3 = tail call ptr @slurm_conf_lock() #19
  %4 = getelementptr inbounds nuw i8, ptr %3, i64 1320
  %5 = load ptr, ptr %4, align 8
  tail call void @slurm_conf_unlock() #19
  br label %6

6:                                                ; preds = %0, %2
  %.0 = phi ptr [ null, %0 ], [ %5, %2 ]
  ret ptr %.0
}